target datalayout = "e-m:e-p270:32:32-p271:32:32-p272:64:64-i64:64-i128:128-f80:128-n8:16:32:64-S128"
target triple = "x86_64-pc-linux-gnu"

%struct.epan_column_info = type { ptr, i32, ptr, ptr, ptr, %struct.col_expr_t, i32, ptr }
%struct.col_expr_t = type { ptr, ptr }
%struct.col_item_t = type { i32, ptr, ptr, ptr, i32, ptr, ptr, ptr, ptr, i32, i32, i32 }
%struct.nstime_t = type { i64, i32 }
%struct._frame_data = type { i32, i32, i32, i32, i64, ptr, ptr, ptr, i16, i16, %struct.nstime_t, %struct.nstime_t, i32, i32, i8 }

@col_decimal_point = internal global ptr null, align 8
@.str.1 = private unnamed_addr constant [1 x i8] zeroinitializer, align 1
@.str.7 = private unnamed_addr constant [20 x i8] c"epan/column-utils.c\00", align 1
@.str.9 = private unnamed_addr constant [31 x i8] c"assertion \22not reached\22 failed\00", align 1
@__func__.get_frame_timestamp_precision = private unnamed_addr constant [30 x i8] c"get_frame_timestamp_precision\00", align 1
@.str.31 = private unnamed_addr constant [11 x i8] c"frame.time\00", align 1

; Function Attrs: nounwind uwtable
define internal i32 @get_frame_timestamp_precision(ptr noundef %0) #0 {
  %2 = alloca ptr, align 8
  %3 = alloca i32, align 4
  store ptr %0, ptr %2, align 8
  %4 = call i32 @timestamp_get_precision()
  store i32 %4, ptr %3, align 4
  %5 = load i32, ptr %3, align 4
  %6 = icmp eq i32 %5, -1
  br i1 %6, label %7, label %14

7:                                                ; preds = %1
  %8 = load ptr, ptr %2, align 8
  %9 = getelementptr inbounds %struct._frame_data, ptr %8, i32 0, i32 9
  %10 = load i16, ptr %9, align 2
  %11 = lshr i16 %10, 10
  %12 = and i16 %11, 15
  %13 = zext i16 %12 to i32
  store i32 %13, ptr %3, align 4
  br label %19

14:                                               ; preds = %1
  %15 = load i32, ptr %3, align 4
  %16 = icmp slt i32 %15, 0
  br i1 %16, label %17, label %18

17:                                               ; preds = %14
  call void (ptr, i32, ptr, i64, ptr, ptr, ...) @ws_log_fatal_full(ptr noundef @.str.1, i32 noundef 7, ptr noundef @.str.7, i64 noundef 984, ptr noundef @__func__.get_frame_timestamp_precision, ptr noundef @.str.9) #10
  unreachable

18:                                               ; preds = %14
  br label %19

19:                                               ; preds = %18, %7
  %20 = load i32, ptr %3, align 4
  %21 = icmp sgt i32 %20, 9
  br i1 %21, label %22, label %23

22:                                               ; preds = %19
  store i32 9, ptr %3, align 4
  br label %23

23:                                               ; preds = %22, %19
  %24 = load i32, ptr %3, align 4
  ret i32 %24
}

; Function Attrs: nounwind uwtable
define internal void @set_abs_ymd_time(ptr noundef %0, ptr noundef %1, ptr noundef %2, i32 noundef %3) #0 {
  %5 = alloca ptr, align 8
  %6 = alloca ptr, align 8
  %7 = alloca ptr, align 8
  %8 = alloca i32, align 4
  store ptr %0, ptr %5, align 8
  store ptr %1, ptr %6, align 8
  store ptr %2, ptr %7, align 8
  store i32 %3, ptr %8, align 4
  %9 = load ptr, ptr %5, align 8
  %10 = getelementptr inbounds %struct._frame_data, ptr %9, i32 0, i32 9
  %11 = load i16, ptr %10, align 2
  %12 = lshr i16 %11, 7
  %13 = and i16 %12, 1
  %14 = zext i16 %13 to i32
  %15 = icmp ne i32 %14, 0
  br i1 %15, label %19, label %16

16:                                               ; preds = %4
  %17 = load ptr, ptr %6, align 8
  %18 = getelementptr i8, ptr %17, i64 0
  store i8 0, ptr %18, align 1
  br label %28

19:                                               ; preds = %4
  %20 = load ptr, ptr %6, align 8
  %21 = load ptr, ptr %5, align 8
  %22 = getelementptr inbounds %struct._frame_data, ptr %21, i32 0, i32 10
  %23 = load ptr, ptr %7, align 8
  %24 = load i32, ptr %8, align 4
  %25 = icmp ne i32 %24, 0
  %26 = load ptr, ptr %5, align 8
  %27 = call i32 @get_frame_timestamp_precision(ptr noundef %26)
  call void @format_nstime_as_iso8601(ptr noundef %20, i64 noundef 2048, ptr noundef %22, ptr noundef %23, i1 noundef zeroext %25, i32 noundef %27)
  br label %28

28:                                               ; preds = %19, %16
  ret void
}

; Function Attrs: nounwind uwtable
define internal void @col_set_abs_ymd_time(ptr noundef %0, ptr noundef %1, i32 noundef %2) #0 {
  %4 = alloca ptr, align 8
  %5 = alloca ptr, align 8
  %6 = alloca i32, align 4
  store ptr %0, ptr %4, align 8
  store ptr %1, ptr %5, align 8
  store i32 %2, ptr %6, align 4
  %7 = load ptr, ptr %4, align 8
  %8 = load ptr, ptr %5, align 8
  %9 = getelementptr inbounds %struct.epan_column_info, ptr %8, i32 0, i32 2
  %10 = load ptr, ptr %9, align 8
  %11 = load i32, ptr %6, align 4
  %12 = sext i32 %11 to i64
  %13 = getelementptr %struct.col_item_t, ptr %10, i64 %12
  %14 = getelementptr inbounds %struct.col_item_t, ptr %13, i32 0, i32 8
  %15 = load ptr, ptr %14, align 8
  %16 = load ptr, ptr @col_decimal_point, align 8
  call void @set_abs_ymd_time(ptr noundef %7, ptr noundef %15, ptr noundef %16, i32 noundef 1)
  %17 = load ptr, ptr %5, align 8
  %18 = getelementptr inbounds %struct.epan_column_info, ptr %17, i32 0, i32 5
  %19 = getelementptr inbounds %struct.col_expr_t, ptr %18, i32 0, i32 0
  %20 = load ptr, ptr %19, align 8
  %21 = load i32, ptr %6, align 4
  %22 = sext i32 %21 to i64
  %23 = getelementptr ptr, ptr %20, i64 %22
  store ptr @.str.31, ptr %23, align 8
  %24 = load ptr, ptr %5, align 8
  %25 = getelementptr inbounds %struct.epan_column_info, ptr %24, i32 0, i32 5
  %26 = getelementptr inbounds %struct.col_expr_t, ptr %25, i32 0, i32 1
  %27 = load ptr, ptr %26, align 8
  %28 = load i32, ptr %6, align 4
  %29 = sext i32 %28 to i64
  %30 = getelementptr ptr, ptr %27, i64 %29
  %31 = load ptr, ptr %30, align 8
  %32 = load ptr, ptr %5, align 8
  %33 = getelementptr inbounds %struct.epan_column_info, ptr %32, i32 0, i32 2
  %34 = load ptr, ptr %33, align 8
  %35 = load i32, ptr %6, align 4
  %36 = sext i32 %35 to i64
  %37 = getelementptr %struct.col_item_t, ptr %34, i64 %36
  %38 = getelementptr inbounds %struct.col_item_t, ptr %37, i32 0, i32 8
  %39 = load ptr, ptr %38, align 8
  %40 = call i64 @g_strlcpy(ptr noundef %31, ptr noundef %39, i64 noundef 2048)
  %41 = load ptr, ptr %5, align 8
  %42 = getelementptr inbounds %struct.epan_column_info, ptr %41, i32 0, i32 2
  %43 = load ptr, ptr %42, align 8
  %44 = load i32, ptr %6, align 4
  %45 = sext i32 %44 to i64
  %46 = getelementptr %struct.col_item_t, ptr %43, i64 %45
  %47 = getelementptr inbounds %struct.col_item_t, ptr %46, i32 0, i32 8
  %48 = load ptr, ptr %47, align 8
  %49 = load ptr, ptr %5, align 8
  %50 = getelementptr inbounds %struct.epan_column_info, ptr %49, i32 0, i32 2
  %51 = load ptr, ptr %50, align 8
  %52 = load i32, ptr %6, align 4
  %53 = sext i32 %52 to i64
  %54 = getelementptr %struct.col_item_t, ptr %51, i64 %53
  %55 = getelementptr inbounds %struct.col_item_t, ptr %54, i32 0, i32 7
  store ptr %48, ptr %55, align 8
  ret void
}